; ModuleID = 'source-C-CXX/7/1216.c'
source_filename = "source-C-CXX/7/1216.c"
target datalayout = "e-m:e-p270:32:32-p271:32:32-p272:64:64-i64:64-f80:128-n8:16:32:64-S128"
target triple = "x86_64-pc-linux-gnu"

@.str = private unnamed_addr constant [6 x i8] c"%d %d\00", align 1
@.str.1 = private unnamed_addr constant [3 x i8] c"%d\00", align 1
@.str.2 = private unnamed_addr constant [4 x i8] c"%d \00", align 1
@.str.3 = private unnamed_addr constant [4 x i8] c"%d\0A\00", align 1

; Function Attrs: mustprogress nofree norecurse nosync nounwind readonly sspstrong uwtable willreturn
define dso_local i32 @compare(i8* nocapture readonly %0, i8* nocapture readonly %1) #0 {
  %3 = bitcast i8* %0 to i32*
  %4 = load i32, i32* %3, align 4, !tbaa !5
  %5 = bitcast i8* %1 to i32*
  %6 = load i32, i32* %5, align 4, !tbaa !5
  %7 = sub nsw i32 %4, %6
  ret i32 %7
}

; Function Attrs: nofree nounwind sspstrong uwtable
define dso_local i32 @main() local_unnamed_addr #1 {
  %1 = alloca i32, align 4
  %2 = alloca i32, align 4
  %3 = bitcast i32* %1 to i8*
  call void @llvm.lifetime.start.p0i8(i64 4, i8* nonnull %3) #8
  %4 = bitcast i32* %2 to i8*
  call void @llvm.lifetime.start.p0i8(i64 4, i8* nonnull %4) #8
  %5 = call i32 (i8*, ...) @__isoc99_scanf(i8* getelementptr inbounds ([6 x i8], [6 x i8]* @.str, i64 0, i64 0), i32* nonnull %1, i32* nonnull %2)
  %6 = load i32, i32* %1, align 4, !tbaa !5
  %7 = zext i32 %6 to i64
  %8 = call i8* @llvm.stacksave()
  %9 = alloca i32, i64 %7, align 16
  %10 = bitcast i32* %9 to i8*
  %11 = load i32, i32* %2, align 4, !tbaa !5
  %12 = zext i32 %11 to i64
  %13 = alloca i32, i64 %12, align 16
  %14 = bitcast i32* %13 to i8*
  %15 = load i32, i32* %1, align 4, !tbaa !5
  %16 = icmp sgt i32 %15, 0
  br i1 %16, label %23, label %19

17:                                               ; preds = %23
  %18 = load i32, i32* %2, align 4, !tbaa !5
  br label %19

19:                                               ; preds = %17, %0
  %20 = phi i32 [ %28, %17 ], [ %15, %0 ]
  %21 = phi i32 [ %18, %17 ], [ %11, %0 ]
  %22 = icmp sgt i32 %21, 0
  br i1 %22, label %31, label %41

23:                                               ; preds = %0, %23
  %24 = phi i64 [ %27, %23 ], [ 0, %0 ]
  %25 = getelementptr inbounds i32, i32* %9, i64 %24
  %26 = call i32 (i8*, ...) @__isoc99_scanf(i8* getelementptr inbounds ([3 x i8], [3 x i8]* @.str.1, i64 0, i64 0), i32* nonnull %25)
  %27 = add nuw nsw i64 %24, 1
  %28 = load i32, i32* %1, align 4, !tbaa !5
  %29 = sext i32 %28 to i64
  %30 = icmp slt i64 %27, %29
  br i1 %30, label %23, label %17, !llvm.loop !9

31:                                               ; preds = %19, %31
  %32 = phi i64 [ %35, %31 ], [ 0, %19 ]
  %33 = getelementptr inbounds i32, i32* %13, i64 %32
  %34 = call i32 (i8*, ...) @__isoc99_scanf(i8* getelementptr inbounds ([3 x i8], [3 x i8]* @.str.1, i64 0, i64 0), i32* nonnull %33)
  %35 = add nuw nsw i64 %32, 1
  %36 = load i32, i32* %2, align 4, !tbaa !5
  %37 = sext i32 %36 to i64
  %38 = icmp slt i64 %35, %37
  br i1 %38, label %31, label %39, !llvm.loop !11

39:                                               ; preds = %31
  %40 = load i32, i32* %1, align 4, !tbaa !5
  br label %41

41:                                               ; preds = %39, %19
  %42 = phi i32 [ %40, %39 ], [ %20, %19 ]
  %43 = sext i32 %42 to i64
  call void @qsort(i8* nonnull %10, i64 %43, i64 4, i32 (i8*, i8*)* nonnull @compare) #8
  %44 = load i32, i32* %2, align 4, !tbaa !5
  %45 = sext i32 %44 to i64
  call void @qsort(i8* nonnull %14, i64 %45, i64 4, i32 (i8*, i8*)* nonnull @compare) #8
  %46 = load i32, i32* %1, align 4, !tbaa !5
  %47 = load i32, i32* %2, align 4, !tbaa !5
  %48 = add i32 %47, %46
  %49 = zext i32 %48 to i64
  %50 = alloca i32, i64 %49, align 16
  %51 = icmp sgt i32 %46, 0
  br i1 %51, label %52, label %56

52:                                               ; preds = %41
  %53 = bitcast i32* %50 to i8*
  %54 = zext i32 %46 to i64
  %55 = shl nuw nsw i64 %54, 2
  call void @llvm.memcpy.p0i8.p0i8.i64(i8* nonnull align 16 %53, i8* nonnull align 16 %10, i64 %55, i1 false)
  br label %56

56:                                               ; preds = %52, %41
  %57 = icmp sgt i32 %47, 0
  br i1 %57, label %58, label %69

58:                                               ; preds = %56
  %59 = sext i32 %46 to i64
  %60 = getelementptr i32, i32* %50, i64 %59
  %61 = bitcast i32* %60 to i8*
  %62 = add i32 %46, 1
  %63 = call i32 @llvm.smax.i32(i32 %48, i32 %62)
  %64 = xor i32 %46, -1
  %65 = add i32 %63, %64
  %66 = zext i32 %65 to i64
  %67 = shl nuw nsw i64 %66, 2
  %68 = add nuw nsw i64 %67, 4
  call void @llvm.memcpy.p0i8.p0i8.i64(i8* noundef nonnull align 4 dereferenceable(1) %61, i8* noundef nonnull align 16 %14, i64 %68, i1 false)
  br label %69

69:                                               ; preds = %58, %56
  %70 = add i32 %46, -1
  %71 = add i32 %70, %47
  %72 = icmp sgt i32 %71, 0
  br i1 %72, label %73, label %87

73:                                               ; preds = %69, %73
  %74 = phi i64 [ %78, %73 ], [ 0, %69 ]
  %75 = getelementptr inbounds i32, i32* %50, i64 %74
  %76 = load i32, i32* %75, align 4, !tbaa !5
  %77 = call i32 (i8*, ...) @printf(i8* nonnull dereferenceable(1) getelementptr inbounds ([4 x i8], [4 x i8]* @.str.2, i64 0, i64 0), i32 %76)
  %78 = add nuw nsw i64 %74, 1
  %79 = load i32, i32* %1, align 4, !tbaa !5
  %80 = load i32, i32* %2, align 4, !tbaa !5
  %81 = add i32 %79, -1
  %82 = add i32 %81, %80
  %83 = sext i32 %82 to i64
  %84 = icmp slt i64 %78, %83
  br i1 %84, label %73, label %85, !llvm.loop !12

85:                                               ; preds = %73
  %86 = and i64 %78, 4294967295
  br label %87

87:                                               ; preds = %85, %69
  %88 = phi i64 [ 0, %69 ], [ %86, %85 ]
  %89 = getelementptr inbounds i32, i32* %50, i64 %88
  %90 = load i32, i32* %89, align 4, !tbaa !5
  %91 = call i32 (i8*, ...) @printf(i8* nonnull dereferenceable(1) getelementptr inbounds ([4 x i8], [4 x i8]* @.str.3, i64 0, i64 0), i32 %90)
  call void @llvm.stackrestore(i8* %8)
  call void @llvm.lifetime.end.p0i8(i64 4, i8* nonnull %4) #8
  call void @llvm.lifetime.end.p0i8(i64 4, i8* nonnull %3) #8
  ret i32 0
}

; Function Attrs: argmemonly mustprogress nofree nosync nounwind willreturn
declare void @llvm.lifetime.start.p0i8(i64 immarg, i8* nocapture) #2

; Function Attrs: nofree nounwind
declare noundef i32 @__isoc99_scanf(i8* nocapture noundef readonly, ...) local_unnamed_addr #3

; Function Attrs: mustprogress nofree nosync nounwind willreturn
declare i8* @llvm.stacksave() #4

; Function Attrs: nofree
declare void @qsort(i8* noundef, i64 noundef, i64 noundef, i32 (i8*, i8*)* nocapture noundef) local_unnamed_addr #5

; Function Attrs: nofree nounwind
declare noundef i32 @printf(i8* nocapture noundef readonly, ...) local_unnamed_addr #3

; Function Attrs: argmemonly mustprogress nofree nosync nounwind willreturn
declare void @llvm.lifetime.end.p0i8(i64 immarg, i8* nocapture) #2

; Function Attrs: mustprogress nofree nosync nounwind willreturn
declare void @llvm.stackrestore(i8*) #4

; Function Attrs: argmemonly nofree nounwind willreturn
declare void @llvm.memcpy.p0i8.p0i8.i64(i8* noalias nocapture writeonly, i8* noalias nocapture readonly, i64, i1 immarg) #6

; Function Attrs: nofree nosync nounwind readnone speculatable willreturn
declare i32 @llvm.smax.i32(i32, i32) #7


!llvm.module.flags = !{!0, !1, !2, !3}
!llvm.ident = !{!4}

!0 = !{i32 1, !"wchar_size", i32 4}
!1 = !{i32 7, !"PIC Level", i32 2}
!2 = !{i32 7, !"PIE Level", i32 2}
!3 = !{i32 7, !"uwtable", i32 1}
!4 = !{!"clang version 13.0.0"}
!5 = !{!6, !6, i64 0}
!6 = !{!"int", !7, i64 0}
!7 = !{!"omnipotent char", !8, i64 0}
!8 = !{!"Simple C/C++ TBAA"}
!9 = distinct !{!9, !10}
!10 = !{!"llvm.loop.mustprogress"}
!11 = distinct !{!11, !10}
!12 = distinct !{!12, !10}
